(lp1
(I1761
I886
tp2
a(I1893
I775
tp3
a(I1931
I602
tp4
a(I1892
I439
tp5
a(I1764
I316
tp6
a(I1591
I238
tp7
a(I1432
I279
tp8
a(I1296
I404
tp9
a(I1226
I616
tp10
a(I1292
I796
tp11
a(I1414
I956
tp12
a(I1589
I995
tp13
a.